target datalayout = "e-m:e-p270:32:32-p271:32:32-p272:64:64-i64:64-i128:128-f80:128-n8:16:32:64-S128"
target triple = "x86_64-pc-linux-gnu"

@.str.260 = private unnamed_addr constant [14 x i8] c"%d (%d.%d.%d)\00", align 1

; Function Attrs: null_pointer_is_valid sspstrong uwtable
define internal void @pvfc_fmt_release_num(ptr noundef %0, i32 noundef %1) #0 {
  %3 = alloca ptr, align 8
  %4 = alloca i32, align 4
  store ptr %0, ptr %3, align 8
  store i32 %1, ptr %4, align 4
  %5 = load ptr, ptr %3, align 8
  %6 = load ptr, ptr %3, align 8
  %7 = call i64 @llvm.objectsize.i64.p0(ptr %6, i1 false, i1 true, i1 true)
  %8 = load i32, ptr %4, align 4
  %9 = load i32, ptr %4, align 4
  %10 = udiv i32 %9, 10000
  %11 = load i32, ptr %4, align 4
  %12 = urem i32 %11, 10000
  %13 = udiv i32 %12, 100
  %14 = load i32, ptr %4, align 4
  %15 = urem i32 %14, 10000
  %16 = urem i32 %15, 100
  %17 = call i32 (ptr, i64, i32, i64, ptr, ...) @__snprintf_chk(ptr noundef %5, i64 noundef 240, i32 noundef 2, i64 noundef %7, ptr noundef @.str.260, i32 noundef %8, i32 noundef %10, i32 noundef %13, i32 noundef %16)
  ret void
}