; Function Attrs: nofree null_pointer_is_valid sspstrong uwtable
define internal void @pvfc_fmt_release_num(ptr noundef %0, i32 noundef %1) #1 {
  %3 = udiv i32 %1, 10000
  %4 = urem i32 %1, 10000
  %.lhs.trunc = trunc nuw nsw i32 %4 to i16
  %5 = udiv i16 %.lhs.trunc, 100
  %.zext = zext nneg i16 %5 to i32
  %6 = urem i16 %.lhs.trunc, 100
  %.zext6 = zext nneg i16 %6 to i32
  %7 = tail call i32 (ptr, i64, i32, i64, ptr, ...) @__snprintf_chk(ptr noundef %0, i64 noundef 240, i32 noundef 2, i64 noundef -1, ptr noundef nonnull @.str.260, i32 noundef %1, i32 noundef %3, i32 noundef %.zext, i32 noundef %.zext6)
  ret void
}